; ModuleID = 'bench/folly/original/MathOperation_AVX2.cpp.ll'
source_filename = "bench/folly/original/MathOperation_AVX2.cpp.ll"
target datalayout = "e-m:e-p270:32:32-p271:32:32-p272:64:64-i64:64-i128:128-f80:128-n8:16:32:64-S128"
target triple = "x86_64-unknown-linux-gnu"

%"class.folly::Range.0" = type { ptr, ptr }
%"class.google::LogMessageFatal" = type { %"class.google::LogMessage" }
%"class.google::LogMessage" = type { ptr, ptr, %"struct.google::LogMessageTime" }
%"struct.google::LogMessageTime" = type { %struct.tm, i64, i32, i64 }
%struct.tm = type { i32, i32, i32, i32, i32, i32, i32, i32, i32, i64, ptr }

@.str = private unnamed_addr constant [145 x i8] c"generated/home/dtcxzyw/WorkSpace/Projects/compilers/llvm-opt-benchmark/bench/folly/folly/folly/experimental/crypto/detail/MathOperation_AVX2.cpp\00", align 1
@.str.1 = private unnamed_addr constant [57 x i8] c"Unimplemented function MathOperation<MathEngine::AVX2>::\00", align 1
@.str.2 = private unnamed_addr constant [13 x i8] c"add() called\00", align 1
@.str.3 = private unnamed_addr constant [13 x i8] c"sub() called\00", align 1
@.str.4 = private unnamed_addr constant [26 x i8] c"clearPaddingBits() called\00", align 1
@.str.5 = private unnamed_addr constant [26 x i8] c"checkPaddingBits() called\00", align 1

; Function Attrs: mustprogress nofree norecurse nosync nounwind willreturn memory(none) uwtable
define noundef zeroext i1 @_ZN5folly6crypto6detail13MathOperationILNS1_10MathEngineE3EE13isImplementedEv() local_unnamed_addr #0 align 2 {
entry:
  ret i1 false
}

; Function Attrs: mustprogress uwtable
define void @_ZN5folly6crypto6detail13MathOperationILNS1_10MathEngineE3EE3addEmmNS_5RangeIPKhEES8_NS5_IPhEE(i64 noundef %0, i64 noundef %bitsPerElement, ptr nocapture readnone %.coerce0, ptr nocapture readnone %.coerce1, ptr nocapture readnone %.coerce01, ptr nocapture readnone %.coerce12, ptr nocapture noundef readnone byval(%"class.folly::Range.0") align 8 %1) local_unnamed_addr #1 align 2 personality ptr @__gxx_personality_v0 {
entry:
  %ref.tmp = alloca %"class.google::LogMessageFatal", align 8
  %cmp.not = icmp eq i64 %bitsPerElement, 0
  br i1 %cmp.not, label %if.end, label %if.then

if.then:                                          ; preds = %entry
  call void @llvm.lifetime.start.p0(i64 96, ptr nonnull %ref.tmp) #6
  call void @_ZN6google15LogMessageFatalC1EPKci(ptr noundef nonnull align 8 dereferenceable(96) %ref.tmp, ptr noundef nonnull @.str, i32 noundef 227)
  %call = invoke noundef nonnull align 8 dereferenceable(8) ptr @_ZN6google10LogMessage6streamEv(ptr noundef nonnull align 8 dereferenceable(96) %ref.tmp)
          to label %invoke.cont unwind label %lpad

invoke.cont:                                      ; preds = %if.then
  %call1.i10 = invoke noundef nonnull align 8 dereferenceable(8) ptr @_ZSt16__ostream_insertIcSt11char_traitsIcEERSt13basic_ostreamIT_T0_ES6_PKS3_l(ptr noundef nonnull align 8 dereferenceable(8) %call, ptr noundef nonnull @.str.1, i64 noundef 56)
          to label %invoke.cont3 unwind label %lpad

invoke.cont3:                                     ; preds = %invoke.cont
  %call6 = invoke noundef nonnull align 8 dereferenceable(8) ptr @_ZStlsISt11char_traitsIcEERSt13basic_ostreamIcT_ES5_PKc(ptr noundef nonnull align 8 dereferenceable(8) %call, ptr noundef nonnull @.str.2)
          to label %invoke.cont5 unwind label %lpad

invoke.cont5:                                     ; preds = %invoke.cont3
  call void @_ZN6google15LogMessageFatalD1Ev(ptr noundef nonnull align 8 dereferenceable(96) %ref.tmp) #7
  unreachable

lpad:                                             ; preds = %invoke.cont3, %invoke.cont, %if.then
  %2 = landingpad { ptr, i32 }
          cleanup
  call void @_ZN6google15LogMessageFatalD1Ev(ptr noundef nonnull align 8 dereferenceable(96) %ref.tmp) #7
  unreachable

if.end:                                           ; preds = %entry
  ret void
}

; Function Attrs: inlinehint mustprogress uwtable
declare noundef nonnull align 8 dereferenceable(8) ptr @_ZStlsISt11char_traitsIcEERSt13basic_ostreamIcT_ES5_PKc(ptr noundef nonnull align 8 dereferenceable(8), ptr noundef) local_unnamed_addr #2

; Function Attrs: mustprogress nocallback nofree nosync nounwind willreturn memory(argmem: readwrite)
declare void @llvm.lifetime.start.p0(i64 immarg, ptr nocapture) #3

declare void @_ZN6google15LogMessageFatalC1EPKci(ptr noundef nonnull align 8 dereferenceable(96), ptr noundef, i32 noundef) unnamed_addr #4

declare noundef nonnull align 8 dereferenceable(8) ptr @_ZN6google10LogMessage6streamEv(ptr noundef nonnull align 8 dereferenceable(96)) local_unnamed_addr #4

declare i32 @__gxx_personality_v0(...)

; Function Attrs: noreturn nounwind
declare void @_ZN6google15LogMessageFatalD1Ev(ptr noundef nonnull align 8 dereferenceable(96)) unnamed_addr #5

declare noundef nonnull align 8 dereferenceable(8) ptr @_ZSt16__ostream_insertIcSt11char_traitsIcEERSt13basic_ostreamIT_T0_ES6_PKS3_l(ptr noundef nonnull align 8 dereferenceable(8), ptr noundef, i64 noundef) local_unnamed_addr #4

; Function Attrs: mustprogress uwtable
define void @_ZN5folly6crypto6detail13MathOperationILNS1_10MathEngineE3EE3subEmmNS_5RangeIPKhEES8_NS5_IPhEE(i64 noundef %0, i64 noundef %bitsPerElement, ptr nocapture readnone %.coerce0, ptr nocapture readnone %.coerce1, ptr nocapture readnone %.coerce01, ptr nocapture readnone %.coerce12, ptr nocapture noundef readnone byval(%"class.folly::Range.0") align 8 %1) local_unnamed_addr #1 align 2 personality ptr @__gxx_personality_v0 {
entry:
  %ref.tmp = alloca %"class.google::LogMessageFatal", align 8
  %cmp.not = icmp eq i64 %bitsPerElement, 0
  br i1 %cmp.not, label %if.end, label %if.then

if.then:                                          ; preds = %entry
  call void @llvm.lifetime.start.p0(i64 96, ptr nonnull %ref.tmp) #6
  call void @_ZN6google15LogMessageFatalC1EPKci(ptr noundef nonnull align 8 dereferenceable(96) %ref.tmp, ptr noundef nonnull @.str, i32 noundef 241)
  %call = invoke noundef nonnull align 8 dereferenceable(8) ptr @_ZN6google10LogMessage6streamEv(ptr noundef nonnull align 8 dereferenceable(96) %ref.tmp)
          to label %invoke.cont unwind label %lpad

invoke.cont:                                      ; preds = %if.then
  %call1.i10 = invoke noundef nonnull align 8 dereferenceable(8) ptr @_ZSt16__ostream_insertIcSt11char_traitsIcEERSt13basic_ostreamIT_T0_ES6_PKS3_l(ptr noundef nonnull align 8 dereferenceable(8) %call, ptr noundef nonnull @.str.1, i64 noundef 56)
          to label %invoke.cont3 unwind label %lpad

invoke.cont3:                                     ; preds = %invoke.cont
  %call6 = invoke noundef nonnull align 8 dereferenceable(8) ptr @_ZStlsISt11char_traitsIcEERSt13basic_ostreamIcT_ES5_PKc(ptr noundef nonnull align 8 dereferenceable(8) %call, ptr noundef nonnull @.str.3)
          to label %invoke.cont5 unwind label %lpad

invoke.cont5:                                     ; preds = %invoke.cont3
  call void @_ZN6google15LogMessageFatalD1Ev(ptr noundef nonnull align 8 dereferenceable(96) %ref.tmp) #7
  unreachable

lpad:                                             ; preds = %invoke.cont3, %invoke.cont, %if.then
  %2 = landingpad { ptr, i32 }
          cleanup
  call void @_ZN6google15LogMessageFatalD1Ev(ptr noundef nonnull align 8 dereferenceable(96) %ref.tmp) #7
  unreachable

if.end:                                           ; preds = %entry
  ret void
}

; Function Attrs: mustprogress uwtable
define void @_ZN5folly6crypto6detail13MathOperationILNS1_10MathEngineE3EE16clearPaddingBitsEmNS_5RangeIPhEE(i64 noundef %0, ptr readnone %buf.coerce0, ptr nocapture readnone %buf.coerce1) local_unnamed_addr #1 align 2 personality ptr @__gxx_personality_v0 {
entry:
  %ref.tmp = alloca %"class.google::LogMessageFatal", align 8
  %cmp.not = icmp eq ptr %buf.coerce0, null
  br i1 %cmp.not, label %if.end, label %if.then

if.then:                                          ; preds = %entry
  call void @llvm.lifetime.start.p0(i64 96, ptr nonnull %ref.tmp) #6
  call void @_ZN6google15LogMessageFatalC1EPKci(ptr noundef nonnull align 8 dereferenceable(96) %ref.tmp, ptr noundef nonnull @.str, i32 noundef 250)
  %call1 = invoke noundef nonnull align 8 dereferenceable(8) ptr @_ZN6google10LogMessage6streamEv(ptr noundef nonnull align 8 dereferenceable(96) %ref.tmp)
          to label %invoke.cont unwind label %lpad

invoke.cont:                                      ; preds = %if.then
  %call1.i7 = invoke noundef nonnull align 8 dereferenceable(8) ptr @_ZSt16__ostream_insertIcSt11char_traitsIcEERSt13basic_ostreamIT_T0_ES6_PKS3_l(ptr noundef nonnull align 8 dereferenceable(8) %call1, ptr noundef nonnull @.str.1, i64 noundef 56)
          to label %invoke.cont2 unwind label %lpad

invoke.cont2:                                     ; preds = %invoke.cont
  %call5 = invoke noundef nonnull align 8 dereferenceable(8) ptr @_ZStlsISt11char_traitsIcEERSt13basic_ostreamIcT_ES5_PKc(ptr noundef nonnull align 8 dereferenceable(8) %call1, ptr noundef nonnull @.str.4)
          to label %invoke.cont4 unwind label %lpad

invoke.cont4:                                     ; preds = %invoke.cont2
  call void @_ZN6google15LogMessageFatalD1Ev(ptr noundef nonnull align 8 dereferenceable(96) %ref.tmp) #7
  unreachable

lpad:                                             ; preds = %invoke.cont2, %invoke.cont, %if.then
  %1 = landingpad { ptr, i32 }
          cleanup
  call void @_ZN6google15LogMessageFatalD1Ev(ptr noundef nonnull align 8 dereferenceable(96) %ref.tmp) #7
  unreachable

if.end:                                           ; preds = %entry
  ret void
}

; Function Attrs: mustprogress uwtable
define noundef zeroext i1 @_ZN5folly6crypto6detail13MathOperationILNS1_10MathEngineE3EE16checkPaddingBitsEmNS_5RangeIPKhEE(i64 noundef %0, ptr readnone %buf.coerce0, ptr nocapture readnone %buf.coerce1) local_unnamed_addr #1 align 2 personality ptr @__gxx_personality_v0 {
entry:
  %ref.tmp = alloca %"class.google::LogMessageFatal", align 8
  %cmp.not = icmp eq ptr %buf.coerce0, null
  br i1 %cmp.not, label %if.end, label %if.then

if.then:                                          ; preds = %entry
  call void @llvm.lifetime.start.p0(i64 96, ptr nonnull %ref.tmp) #6
  call void @_ZN6google15LogMessageFatalC1EPKci(ptr noundef nonnull align 8 dereferenceable(96) %ref.tmp, ptr noundef nonnull @.str, i32 noundef 259)
  %call1 = invoke noundef nonnull align 8 dereferenceable(8) ptr @_ZN6google10LogMessage6streamEv(ptr noundef nonnull align 8 dereferenceable(96) %ref.tmp)
          to label %invoke.cont unwind label %lpad

invoke.cont:                                      ; preds = %if.then
  %call1.i7 = invoke noundef nonnull align 8 dereferenceable(8) ptr @_ZSt16__ostream_insertIcSt11char_traitsIcEERSt13basic_ostreamIT_T0_ES6_PKS3_l(ptr noundef nonnull align 8 dereferenceable(8) %call1, ptr noundef nonnull @.str.1, i64 noundef 56)
          to label %invoke.cont2 unwind label %lpad

invoke.cont2:                                     ; preds = %invoke.cont
  %call5 = invoke noundef nonnull align 8 dereferenceable(8) ptr @_ZStlsISt11char_traitsIcEERSt13basic_ostreamIcT_ES5_PKc(ptr noundef nonnull align 8 dereferenceable(8) %call1, ptr noundef nonnull @.str.5)
          to label %invoke.cont4 unwind label %lpad

invoke.cont4:                                     ; preds = %invoke.cont2
  call void @_ZN6google15LogMessageFatalD1Ev(ptr noundef nonnull align 8 dereferenceable(96) %ref.tmp) #7
  unreachable

lpad:                                             ; preds = %invoke.cont2, %invoke.cont, %if.then
  %1 = landingpad { ptr, i32 }
          cleanup
  call void @_ZN6google15LogMessageFatalD1Ev(ptr noundef nonnull align 8 dereferenceable(96) %ref.tmp) #7
  unreachable

if.end:                                           ; preds = %entry
  ret i1 false
}


!llvm.module.flags = !{!0, !1, !2, !3, !4, !5, !6}

!0 = !{i32 7, !"Dwarf Version", i32 5}
!1 = !{i32 2, !"Debug Info Version", i32 3}
!2 = !{i32 1, !"wchar_size", i32 4}
!3 = !{i32 7, !"openmp", i32 51}
!4 = !{i32 8, !"PIC Level", i32 2}
!5 = !{i32 7, !"uwtable", i32 2}
!6 = !{i32 7, !"debug-info-assignment-tracking", i1 true}
